target datalayout = "e-m:e-p270:32:32-p271:32:32-p272:64:64-i64:64-i128:128-f80:128-n8:16:32:64-S128"
target triple = "x86_64-pc-linux-gnu"

%"class.std::__cxx11::basic_string.3" = type { %"struct.std::__cxx11::basic_string<char>::_Alloc_hider", i64, %union.anon.7 }
%"struct.std::__cxx11::basic_string<char>::_Alloc_hider" = type { ptr }
%union.anon.7 = type { i64, [8 x i8] }
%"class.boost::program_options::error_with_option_name" = type { %"class.boost::program_options::error", i32, %"class.std::map", %"class.std::map.18", %"class.std::__cxx11::basic_string.3", %"class.std::__cxx11::basic_string.3" }
%"class.boost::program_options::error" = type { %"class.std::logic_error" }
%"class.std::logic_error" = type { %"class.std::exception", %"struct.std::__cow_string" }
%"class.std::exception" = type { ptr }
%"struct.std::__cow_string" = type { %union.anon.14 }
%union.anon.14 = type { ptr }
%"class.std::map" = type { %"class.std::_Rb_tree" }
%"class.std::_Rb_tree" = type { %"struct.std::_Rb_tree<std::__cxx11::basic_string<char>, std::pair<const std::__cxx11::basic_string<char>, std::__cxx11::basic_string<char>>, std::_Select1st<std::pair<const std::__cxx11::basic_string<char>, std::__cxx11::basic_string<char>>>, std::less<std::__cxx11::basic_string<char>>>::_Rb_tree_impl" }
%"struct.std::_Rb_tree<std::__cxx11::basic_string<char>, std::pair<const std::__cxx11::basic_string<char>, std::__cxx11::basic_string<char>>, std::_Select1st<std::pair<const std::__cxx11::basic_string<char>, std::__cxx11::basic_string<char>>>, std::less<std::__cxx11::basic_string<char>>>::_Rb_tree_impl" = type { [8 x i8], %"struct.std::_Rb_tree_header" }
%"struct.std::_Rb_tree_header" = type { %"struct.std::_Rb_tree_node_base", i64 }
%"struct.std::_Rb_tree_node_base" = type { i32, ptr, ptr, ptr }
%"class.std::map.18" = type { %"class.std::_Rb_tree.19" }
%"class.std::_Rb_tree.19" = type { %"struct.std::_Rb_tree<std::__cxx11::basic_string<char>, std::pair<const std::__cxx11::basic_string<char>, std::pair<std::__cxx11::basic_string<char>, std::__cxx11::basic_string<char>>>, std::_Select1st<std::pair<const std::__cxx11::basic_string<char>, std::pair<std::__cxx11::basic_string<char>, std::__cxx11::basic_string<char>>>>, std::less<std::__cxx11::basic_string<char>>>::_Rb_tree_impl" }
%"struct.std::_Rb_tree<std::__cxx11::basic_string<char>, std::pair<const std::__cxx11::basic_string<char>, std::pair<std::__cxx11::basic_string<char>, std::__cxx11::basic_string<char>>>, std::_Select1st<std::pair<const std::__cxx11::basic_string<char>, std::pair<std::__cxx11::basic_string<char>, std::__cxx11::basic_string<char>>>>, std::less<std::__cxx11::basic_string<char>>>::_Rb_tree_impl" = type { [8 x i8], %"struct.std::_Rb_tree_header" }

@.str.47 = private unnamed_addr constant [55 x i8] c"%s: __pos (which is %zu) > this->size() (which is %zu)\00", align 1
@.str.58 = private unnamed_addr constant [22 x i8] c"basic_string::replace\00", align 1

; Function Attrs: mustprogress nounwind uwtable
define available_externally noundef i64 @_ZNKSt7__cxx1112basic_stringIcSt11char_traitsIcESaIcEE8_M_limitEmm(ptr noundef nonnull align 8 dereferenceable(32) %0, i64 noundef %1, i64 noundef %2) #2 align 2 {
  %4 = alloca ptr, align 8
  %5 = alloca i64, align 8
  %6 = alloca i64, align 8
  %7 = alloca i8, align 1
  store ptr %0, ptr %4, align 8, !tbaa !3
  store i64 %1, ptr %5, align 8, !tbaa !20
  store i64 %2, ptr %6, align 8, !tbaa !20
  %8 = load ptr, ptr %4, align 8
  call void @llvm.lifetime.start.p0(i64 1, ptr %7) #5
  %9 = load i64, ptr %6, align 8, !tbaa !20
  %10 = call noundef i64 @_ZNKSt7__cxx1112basic_stringIcSt11char_traitsIcESaIcEE4sizeEv(ptr noundef nonnull align 8 dereferenceable(32) %8) #5
  %11 = load i64, ptr %5, align 8, !tbaa !20
  %12 = sub i64 %10, %11
  %13 = icmp ult i64 %9, %12
  %14 = zext i1 %13 to i8
  store i8 %14, ptr %7, align 1, !tbaa !7
  %15 = load i8, ptr %7, align 1, !tbaa !7, !range !9, !noundef !10
  %16 = trunc i8 %15 to i1
  br i1 %16, label %17, label %19

17:                                               ; preds = %3
  %18 = load i64, ptr %6, align 8, !tbaa !20
  br label %23

19:                                               ; preds = %3
  %20 = call noundef i64 @_ZNKSt7__cxx1112basic_stringIcSt11char_traitsIcESaIcEE4sizeEv(ptr noundef nonnull align 8 dereferenceable(32) %8) #5
  %21 = load i64, ptr %5, align 8, !tbaa !20
  %22 = sub i64 %20, %21
  br label %23

23:                                               ; preds = %19, %17
  %24 = phi i64 [ %18, %17 ], [ %22, %19 ]
  call void @llvm.lifetime.end.p0(i64 1, ptr %7) #5
  ret i64 %24
}

; Function Attrs: mustprogress uwtable
define available_externally noundef i64 @_ZNKSt7__cxx1112basic_stringIcSt11char_traitsIcESaIcEE8_M_checkEmPKc(ptr noundef nonnull align 8 dereferenceable(32) %0, i64 noundef %1, ptr noundef %2) #0 align 2 {
  %4 = alloca ptr, align 8
  %5 = alloca i64, align 8
  %6 = alloca ptr, align 8
  store ptr %0, ptr %4, align 8, !tbaa !3
  store i64 %1, ptr %5, align 8, !tbaa !20
  store ptr %2, ptr %6, align 8, !tbaa !3
  %7 = load ptr, ptr %4, align 8
  %8 = load i64, ptr %5, align 8, !tbaa !20
  %9 = call noundef i64 @_ZNKSt7__cxx1112basic_stringIcSt11char_traitsIcESaIcEE4sizeEv(ptr noundef nonnull align 8 dereferenceable(32) %7) #5
  %10 = icmp ugt i64 %8, %9
  br i1 %10, label %11, label %15

11:                                               ; preds = %3
  %12 = load ptr, ptr %6, align 8, !tbaa !3
  %13 = load i64, ptr %5, align 8, !tbaa !20
  %14 = call noundef i64 @_ZNKSt7__cxx1112basic_stringIcSt11char_traitsIcESaIcEE4sizeEv(ptr noundef nonnull align 8 dereferenceable(32) %7) #5
  call void (ptr, ...) @_ZSt24__throw_out_of_range_fmtPKcz(ptr noundef @.str.47, ptr noundef %12, i64 noundef %13, i64 noundef %14) #23
  unreachable

15:                                               ; preds = %3
  %16 = load i64, ptr %5, align 8, !tbaa !20
  ret i64 %16
}

; Function Attrs: mustprogress uwtable
define available_externally noundef nonnull align 8 dereferenceable(32) ptr @_ZNSt7__cxx1112basic_stringIcSt11char_traitsIcESaIcEE7replaceEmmPKcm(ptr noundef nonnull align 8 dereferenceable(32) %0, i64 noundef %1, i64 noundef %2, ptr noundef %3, i64 noundef %4) #0 align 2 {
  %6 = alloca ptr, align 8
  %7 = alloca i64, align 8
  %8 = alloca i64, align 8
  %9 = alloca ptr, align 8
  %10 = alloca i64, align 8
  store ptr %0, ptr %6, align 8, !tbaa !3
  store i64 %1, ptr %7, align 8, !tbaa !20
  store i64 %2, ptr %8, align 8, !tbaa !20
  store ptr %3, ptr %9, align 8, !tbaa !3
  store i64 %4, ptr %10, align 8, !tbaa !20
  %11 = load ptr, ptr %6, align 8
  %12 = load i64, ptr %7, align 8, !tbaa !20
  %13 = call noundef i64 @_ZNKSt7__cxx1112basic_stringIcSt11char_traitsIcESaIcEE8_M_checkEmPKc(ptr noundef nonnull align 8 dereferenceable(32) %11, i64 noundef %12, ptr noundef @.str.58)
  %14 = load i64, ptr %7, align 8, !tbaa !20
  %15 = load i64, ptr %8, align 8, !tbaa !20
  %16 = call noundef i64 @_ZNKSt7__cxx1112basic_stringIcSt11char_traitsIcESaIcEE8_M_limitEmm(ptr noundef nonnull align 8 dereferenceable(32) %11, i64 noundef %14, i64 noundef %15) #5
  %17 = load ptr, ptr %9, align 8, !tbaa !3
  %18 = load i64, ptr %10, align 8, !tbaa !20
  %19 = call noundef nonnull align 8 dereferenceable(32) ptr @_ZNSt7__cxx1112basic_stringIcSt11char_traitsIcESaIcEE10_M_replaceEmmPKcm(ptr noundef nonnull align 8 dereferenceable(32) %11, i64 noundef %13, i64 noundef %16, ptr noundef %17, i64 noundef %18)
  ret ptr %19
}

; Function Attrs: mustprogress nounwind uwtable
define available_externally noundef i64 @_ZNKSt7__cxx1112basic_stringIcSt11char_traitsIcESaIcEE4sizeEv(ptr noundef nonnull align 8 dereferenceable(32) %0) #2 align 2 {
  %2 = alloca ptr, align 8
  store ptr %0, ptr %2, align 8, !tbaa !3
  %3 = load ptr, ptr %2, align 8
  %4 = getelementptr inbounds nuw %"class.std::__cxx11::basic_string.3", ptr %3, i32 0, i32 1
  %5 = load i64, ptr %4, align 8, !tbaa !48
  ret i64 %5
}

; Function Attrs: mustprogress nounwind uwtable
define available_externally noundef ptr @_ZNKSt7__cxx1112basic_stringIcSt11char_traitsIcESaIcEE7_M_dataEv(ptr noundef nonnull align 8 dereferenceable(32) %0) #2 align 2 {
  %2 = alloca ptr, align 8
  store ptr %0, ptr %2, align 8, !tbaa !3
  %3 = load ptr, ptr %2, align 8
  %4 = getelementptr inbounds nuw %"class.std::__cxx11::basic_string.3", ptr %3, i32 0, i32 0
  %5 = getelementptr inbounds nuw %"struct.std::__cxx11::basic_string<char>::_Alloc_hider", ptr %4, i32 0, i32 0
  %6 = load ptr, ptr %5, align 8, !tbaa !100
  ret ptr %6
}

; Function Attrs: mustprogress uwtable
define available_externally noundef nonnull align 8 dereferenceable(32) ptr @_ZNSt7__cxx1112basic_stringIcSt11char_traitsIcESaIcEE7replaceEmmRKS4_(ptr noundef nonnull align 8 dereferenceable(32) %0, i64 noundef %1, i64 noundef %2, ptr noundef nonnull align 8 dereferenceable(32) %3) #0 align 2 {
  %5 = alloca ptr, align 8
  %6 = alloca i64, align 8
  %7 = alloca i64, align 8
  %8 = alloca ptr, align 8
  store ptr %0, ptr %5, align 8, !tbaa !3
  store i64 %1, ptr %6, align 8, !tbaa !20
  store i64 %2, ptr %7, align 8, !tbaa !20
  store ptr %3, ptr %8, align 8, !tbaa !3
  %9 = load ptr, ptr %5, align 8
  %10 = load i64, ptr %6, align 8, !tbaa !20
  %11 = load i64, ptr %7, align 8, !tbaa !20
  %12 = load ptr, ptr %8, align 8, !tbaa !3
  %13 = call noundef ptr @_ZNKSt7__cxx1112basic_stringIcSt11char_traitsIcESaIcEE7_M_dataEv(ptr noundef nonnull align 8 dereferenceable(32) %12)
  %14 = load ptr, ptr %8, align 8, !tbaa !3
  %15 = call noundef i64 @_ZNKSt7__cxx1112basic_stringIcSt11char_traitsIcESaIcEE4sizeEv(ptr noundef nonnull align 8 dereferenceable(32) %14) #5
  %16 = call noundef nonnull align 8 dereferenceable(32) ptr @_ZNSt7__cxx1112basic_stringIcSt11char_traitsIcESaIcEE7replaceEmmPKcm(ptr noundef nonnull align 8 dereferenceable(32) %9, i64 noundef %10, i64 noundef %11, ptr noundef %13, i64 noundef %15)
  ret ptr %16
}

; Function Attrs: mustprogress nounwind uwtable
define available_externally noundef i64 @_ZNKSt7__cxx1112basic_stringIcSt11char_traitsIcESaIcEE6lengthEv(ptr noundef nonnull align 8 dereferenceable(32) %0) #2 align 2 {
  %2 = alloca ptr, align 8
  store ptr %0, ptr %2, align 8, !tbaa !3
  %3 = load ptr, ptr %2, align 8
  %4 = getelementptr inbounds nuw %"class.std::__cxx11::basic_string.3", ptr %3, i32 0, i32 1
  %5 = load i64, ptr %4, align 8, !tbaa !48
  ret i64 %5
}

; Function Attrs: mustprogress nounwind uwtable
define available_externally noundef ptr @_ZNKSt7__cxx1112basic_stringIcSt11char_traitsIcESaIcEE5c_strEv(ptr noundef nonnull align 8 dereferenceable(32) %0) #2 align 2 {
  %2 = alloca ptr, align 8
  store ptr %0, ptr %2, align 8, !tbaa !3
  %3 = load ptr, ptr %2, align 8
  %4 = call noundef ptr @_ZNKSt7__cxx1112basic_stringIcSt11char_traitsIcESaIcEE7_M_dataEv(ptr noundef nonnull align 8 dereferenceable(32) %3)
  ret ptr %4
}

; Function Attrs: mustprogress uwtable
define void @_ZNK5boost15program_options22error_with_option_name13replace_tokenERKNSt7__cxx1112basic_stringIcSt11char_traitsIcESaIcEEES9_(ptr noundef nonnull align 8 dereferenceable(184) %0, ptr noundef nonnull align 8 dereferenceable(32) %1, ptr noundef nonnull align 8 dereferenceable(32) %2) #0 align 2 {
  %4 = alloca ptr, align 8
  %5 = alloca ptr, align 8
  %6 = alloca ptr, align 8
  %7 = alloca i64, align 8
  %8 = alloca i32, align 4
  store ptr %0, ptr %4, align 8, !tbaa !3
  store ptr %1, ptr %5, align 8, !tbaa !3
  store ptr %2, ptr %6, align 8, !tbaa !3
  %9 = load ptr, ptr %4, align 8
  br label %10

10:                                               ; preds = %29, %3
  call void @llvm.lifetime.start.p0(i64 8, ptr %7) #5
  %11 = getelementptr inbounds nuw %"class.boost::program_options::error_with_option_name", ptr %9, i32 0, i32 5
  %12 = load ptr, ptr %5, align 8, !tbaa !3
  %13 = call noundef ptr @_ZNKSt7__cxx1112basic_stringIcSt11char_traitsIcESaIcEE5c_strEv(ptr noundef nonnull align 8 dereferenceable(32) %12) #5
  %14 = load ptr, ptr %5, align 8, !tbaa !3
  %15 = call noundef i64 @_ZNKSt7__cxx1112basic_stringIcSt11char_traitsIcESaIcEE6lengthEv(ptr noundef nonnull align 8 dereferenceable(32) %14) #5
  %16 = call noundef i64 @_ZNKSt7__cxx1112basic_stringIcSt11char_traitsIcESaIcEE4findEPKcmm(ptr noundef nonnull align 8 dereferenceable(32) %11, ptr noundef %13, i64 noundef 0, i64 noundef %15) #5
  store i64 %16, ptr %7, align 8, !tbaa !20
  %17 = load i64, ptr %7, align 8, !tbaa !20
  %18 = icmp eq i64 %17, -1
  br i1 %18, label %19, label %20

19:                                               ; preds = %10
  store i32 1, ptr %8, align 4
  br label %27

20:                                               ; preds = %10
  %21 = getelementptr inbounds nuw %"class.boost::program_options::error_with_option_name", ptr %9, i32 0, i32 5
  %22 = load i64, ptr %7, align 8, !tbaa !20
  %23 = load ptr, ptr %5, align 8, !tbaa !3
  %24 = call noundef i64 @_ZNKSt7__cxx1112basic_stringIcSt11char_traitsIcESaIcEE6lengthEv(ptr noundef nonnull align 8 dereferenceable(32) %23) #5
  %25 = load ptr, ptr %6, align 8, !tbaa !3
  %26 = call noundef nonnull align 8 dereferenceable(32) ptr @_ZNSt7__cxx1112basic_stringIcSt11char_traitsIcESaIcEE7replaceEmmRKS4_(ptr noundef nonnull align 8 dereferenceable(32) %21, i64 noundef %22, i64 noundef %24, ptr noundef nonnull align 8 dereferenceable(32) %25)
  store i32 0, ptr %8, align 4
  br label %27

27:                                               ; preds = %20, %19
  call void @llvm.lifetime.end.p0(i64 8, ptr %7) #5
  %28 = load i32, ptr %8, align 4
  switch i32 %28, label %31 [
    i32 0, label %29
    i32 1, label %30
  ]

29:                                               ; preds = %27
  br label %10, !llvm.loop !73

30:                                               ; preds = %27
  ret void

31:                                               ; preds = %27
  unreachable
}