; Function Attrs: mustprogress uwtable
define void @_ZNK5boost15program_options22error_with_option_name13replace_tokenERKNSt7__cxx1112basic_stringIcSt11char_traitsIcESaIcEEES9_(ptr noundef nonnull align 8 dereferenceable(184) %0, ptr nocapture noundef nonnull readonly align 8 dereferenceable(32) %1, ptr nocapture noundef nonnull readonly align 8 dereferenceable(32) %2) local_unnamed_addr #0 align 2 {
  %4 = getelementptr inbounds nuw i8, ptr %0, i64 152
  %5 = getelementptr inbounds nuw i8, ptr %1, i64 8
  %6 = load ptr, ptr %1, align 8, !tbaa !15
  %7 = load i64, ptr %5, align 8, !tbaa !18
  %8 = tail call noundef i64 @_ZNKSt7__cxx1112basic_stringIcSt11char_traitsIcESaIcEE4findEPKcmm(ptr noundef nonnull align 8 dereferenceable(32) %4, ptr noundef %6, i64 noundef 0, i64 noundef %7) #28
  %9 = icmp eq i64 %8, -1
  br i1 %9, label %._crit_edge, label %.lr.ph

.lr.ph:                                           ; preds = %3
  %10 = getelementptr inbounds nuw i8, ptr %0, i64 160
  %11 = getelementptr inbounds nuw i8, ptr %2, i64 8
  br label %12

12:                                               ; preds = %.lr.ph, %17
  %13 = phi i64 [ %8, %.lr.ph ], [ %25, %17 ]
  %14 = load i64, ptr %10, align 8, !tbaa !18
  %15 = icmp ugt i64 %13, %14
  br i1 %15, label %16, label %17

16:                                               ; preds = %12
  tail call void (ptr, ...) @_ZSt24__throw_out_of_range_fmtPKcz(ptr noundef nonnull @.str.47, ptr noundef nonnull @.str.58, i64 noundef %13, i64 noundef %14) #30
  unreachable

17:                                               ; preds = %12
  %18 = load i64, ptr %5, align 8, !tbaa !18
  %19 = load i64, ptr %11, align 8, !tbaa !18
  %20 = load ptr, ptr %2, align 8, !tbaa !15
  %21 = sub nuw i64 %14, %13
  %spec.select.i.i.i = tail call noundef i64 @llvm.umin.i64(i64 %18, i64 %21)
  %22 = tail call noundef nonnull align 8 dereferenceable(32) ptr @_ZNSt7__cxx1112basic_stringIcSt11char_traitsIcESaIcEE10_M_replaceEmmPKcm(ptr noundef nonnull align 8 dereferenceable(32) %4, i64 noundef %13, i64 noundef %spec.select.i.i.i, ptr noundef %20, i64 noundef %19)
  %23 = load ptr, ptr %1, align 8, !tbaa !15
  %24 = load i64, ptr %5, align 8, !tbaa !18
  %25 = tail call noundef i64 @_ZNKSt7__cxx1112basic_stringIcSt11char_traitsIcESaIcEE4findEPKcmm(ptr noundef nonnull align 8 dereferenceable(32) %4, ptr noundef %23, i64 noundef 0, i64 noundef %24) #28
  %26 = icmp eq i64 %25, -1
  br i1 %26, label %._crit_edge, label %12

._crit_edge:                                      ; preds = %17, %3
  ret void
}